target datalayout = "e-m:e-p270:32:32-p271:32:32-p272:64:64-i64:64-i128:128-f80:128-n8:16:32:64-S128"
target triple = "x86_64-pc-linux-gnu"

%struct.dsa_st = type { i32, i32, %struct.ffc_params_st, ptr, ptr, i32, ptr, %struct.CRYPTO_REF_COUNT, %struct.crypto_ex_data_st, ptr, ptr, ptr, ptr, i64 }
%struct.ffc_params_st = type { ptr, ptr, ptr, ptr, ptr, i64, i32, i32, i32, i32, i32, ptr, ptr, i32 }
%struct.CRYPTO_REF_COUNT = type { i32 }
%struct.crypto_ex_data_st = type { ptr, ptr }

; Function Attrs: nounwind uwtable
define i32 @ossl_dsa_check_params(ptr noundef %0, i32 noundef %1, ptr noundef %2) #0 {
  %4 = alloca i32, align 4
  %5 = alloca ptr, align 8
  %6 = alloca i32, align 4
  %7 = alloca ptr, align 8
  store ptr %0, ptr %5, align 8, !tbaa !3
  store i32 %1, ptr %6, align 4, !tbaa !8
  store ptr %2, ptr %7, align 8, !tbaa !10
  %8 = load ptr, ptr %5, align 8, !tbaa !3
  %9 = load ptr, ptr %7, align 8, !tbaa !10
  %10 = call i32 @dsa_precheck_params(ptr noundef %8, ptr noundef %9)
  %11 = icmp ne i32 %10, 0
  br i1 %11, label %13, label %12

12:                                               ; preds = %3
  store i32 0, ptr %4, align 4
  br label %32

13:                                               ; preds = %3
  %14 = load i32, ptr %6, align 4, !tbaa !8
  %15 = icmp eq i32 %14, 1
  br i1 %15, label %16, label %24

16:                                               ; preds = %13
  %17 = load ptr, ptr %5, align 8, !tbaa !3
  %18 = getelementptr inbounds nuw %struct.dsa_st, ptr %17, i32 0, i32 12
  %19 = load ptr, ptr %18, align 8, !tbaa !12
  %20 = load ptr, ptr %5, align 8, !tbaa !3
  %21 = getelementptr inbounds nuw %struct.dsa_st, ptr %20, i32 0, i32 2
  %22 = load ptr, ptr %7, align 8, !tbaa !10
  %23 = call i32 @ossl_ffc_params_simple_validate(ptr noundef %19, ptr noundef %21, i32 noundef 0, ptr noundef %22)
  store i32 %23, ptr %4, align 4
  br label %32

24:                                               ; preds = %13
  %25 = load ptr, ptr %5, align 8, !tbaa !3
  %26 = getelementptr inbounds nuw %struct.dsa_st, ptr %25, i32 0, i32 12
  %27 = load ptr, ptr %26, align 8, !tbaa !12
  %28 = load ptr, ptr %5, align 8, !tbaa !3
  %29 = getelementptr inbounds nuw %struct.dsa_st, ptr %28, i32 0, i32 2
  %30 = load ptr, ptr %7, align 8, !tbaa !10
  %31 = call i32 @ossl_ffc_params_full_validate(ptr noundef %27, ptr noundef %29, i32 noundef 0, ptr noundef %30)
  store i32 %31, ptr %4, align 4
  br label %32

32:                                               ; preds = %24, %16, %12
  %33 = load i32, ptr %4, align 4
  ret i32 %33
}