; Function Attrs: nounwind uwtable
define i32 @ossl_dsa_check_params(ptr noundef %0, i32 noundef %1, ptr noundef %2) local_unnamed_addr #0 {
  %4 = tail call fastcc i32 @dsa_precheck_params(ptr noundef %0, ptr noundef %2)
  %.not = icmp eq i32 %4, 0
  br i1 %.not, label %14, label %5

5:                                                ; preds = %3
  %6 = icmp eq i32 %1, 1
  %7 = getelementptr inbounds nuw i8, ptr %0, i64 184
  %8 = load ptr, ptr %7, align 8, !tbaa !3
  %9 = getelementptr inbounds nuw i8, ptr %0, i64 8
  br i1 %6, label %10, label %12

10:                                               ; preds = %5
  %11 = tail call i32 @ossl_ffc_params_simple_validate(ptr noundef %8, ptr noundef nonnull %9, i32 noundef 0, ptr noundef %2) #2
  br label %14

12:                                               ; preds = %5
  %13 = tail call i32 @ossl_ffc_params_full_validate(ptr noundef %8, ptr noundef nonnull %9, i32 noundef 0, ptr noundef %2) #2
  br label %14

14:                                               ; preds = %3, %12, %10
  %.0 = phi i32 [ %11, %10 ], [ %13, %12 ], [ 0, %3 ]
  ret i32 %.0
}